; Function Attrs: mustprogress nofree norecurse nosync nounwind willreturn memory(readwrite, inaccessiblemem: none) uwtable
define hidden ptr @sk_delete(ptr noundef captures(address_is_null) %0, i64 noundef %1) local_unnamed_addr #10 {
  %.not = icmp eq ptr %0, null
  br i1 %.not, label %17, label %3

3:                                                ; preds = %2
  %4 = load i64, ptr %0, align 8, !tbaa !14
  %.not18 = icmp ult i64 %1, %4
  br i1 %.not18, label %5, label %17

5:                                                ; preds = %3
  %6 = getelementptr inbounds nuw i8, ptr %0, i64 8
  %7 = load ptr, ptr %6, align 8, !tbaa !6
  %8 = getelementptr inbounds nuw ptr, ptr %7, i64 %1
  %9 = load ptr, ptr %8, align 8, !tbaa !16
  %10 = add i64 %4, -1
  %.not19 = icmp eq i64 %1, %10
  br i1 %.not19, label %16, label %11

11:                                               ; preds = %5
  %12 = getelementptr i8, ptr %8, i64 8
  %13 = xor i64 %1, -1
  %14 = add i64 %4, %13
  %15 = shl i64 %14, 3
  tail call void @llvm.memmove.p0.p0.i64(ptr nonnull align 8 %8, ptr align 8 %12, i64 %15, i1 false)
  %.pre = load i64, ptr %0, align 8, !tbaa !14
  %.pre20 = add i64 %.pre, -1
  br label %16

16:                                               ; preds = %11, %5
  %.pre-phi = phi i64 [ %.pre20, %11 ], [ %10, %5 ]
  store i64 %.pre-phi, ptr %0, align 8, !tbaa !14
  br label %17

17:                                               ; preds = %2, %3, %16
  %.0 = phi ptr [ %9, %16 ], [ null, %3 ], [ null, %2 ]
  ret ptr %.0
}